; Function Attrs: mustprogress uwtable
define hidden void @_ZN6spacer24lemma_global_generalizer8subsumer16ground_free_varsEP4exprR7obj_refIS2_11ast_managerE(ptr noundef nonnull readonly align 8 captures(none) dereferenceable(152) %0, ptr noundef %1, ptr noundef nonnull align 8 captures(none) dereferenceable(16) %2) local_unnamed_addr #3 align 2 personality ptr @__gxx_personality_v0 {
  %4 = alloca %class.var_subst, align 8
  %5 = alloca %class.obj_ref.51, align 8
  call void @llvm.lifetime.start.p0(i64 552, ptr nonnull %4) #23
  %6 = getelementptr inbounds nuw i8, ptr %0, i64 40
  %7 = load ptr, ptr %6, align 8, !tbaa !18
  store ptr getelementptr inbounds nuw inrange(-16, 16) (i8, ptr @_ZTV12beta_reducer, i64 16), ptr %4, align 8, !tbaa !43
  %8 = getelementptr inbounds nuw i8, ptr %4, i64 536
  call void @_ZN12rewriter_tplI16beta_reducer_cfgEC2ER11ast_managerbRS0_(ptr noundef nonnull align 8 dereferenceable(545) %4, ptr noundef nonnull align 8 dereferenceable(976) %7, i1 noundef zeroext false, ptr noundef nonnull align 1 dereferenceable(1) %8)
  store ptr getelementptr inbounds nuw inrange(-16, 16) (i8, ptr @_ZTV12beta_reducer, i64 16), ptr %4, align 8, !tbaa !43
  %9 = getelementptr inbounds nuw i8, ptr %4, i64 544
  store i8 0, ptr %9, align 8, !tbaa !359
  call void @llvm.lifetime.start.p0(i64 16, ptr nonnull %5) #23
  %10 = getelementptr inbounds nuw i8, ptr %0, i64 128
  %11 = load ptr, ptr %10, align 8, !tbaa !59
  %12 = icmp eq ptr %11, null
  br i1 %12, label %_ZNK6vectorI8rationalLb1EjE4sizeEv.exit, label %13

13:                                               ; preds = %3
  %14 = getelementptr inbounds i8, ptr %11, i64 -4
  %15 = load i32, ptr %14, align 4, !tbaa !60
  br label %_ZNK6vectorI8rationalLb1EjE4sizeEv.exit

_ZNK6vectorI8rationalLb1EjE4sizeEv.exit:          ; preds = %3, %13
  %.0.i = phi i32 [ %15, %13 ], [ 0, %3 ]
  %16 = getelementptr inbounds nuw i8, ptr %0, i64 120
  %17 = load ptr, ptr %16, align 8, !tbaa !36
  invoke void @_ZN9var_substclEP4exprjPKS1_(ptr dead_on_unwind nonnull writable sret(%class.obj_ref.51) align 8 %5, ptr noundef nonnull align 8 dereferenceable(545) %4, ptr noundef %1, i32 noundef %.0.i, ptr noundef %17)
          to label %18 unwind label %32

18:                                               ; preds = %_ZNK6vectorI8rationalLb1EjE4sizeEv.exit
  %19 = load ptr, ptr %2, align 8, !tbaa !226
  %20 = load ptr, ptr %5, align 8, !tbaa !226
  store ptr %20, ptr %2, align 8, !tbaa !226
  store ptr %19, ptr %5, align 8, !tbaa !226
  %.not.i.i.i = icmp eq ptr %19, null
  br i1 %.not.i.i.i, label %_ZN7obj_refI4expr11ast_managerED2Ev.exit, label %21

21:                                               ; preds = %18
  %22 = getelementptr inbounds nuw i8, ptr %5, i64 8
  %23 = load ptr, ptr %22, align 8, !tbaa !220
  %24 = getelementptr inbounds nuw i8, ptr %19, i64 8
  %25 = load i32, ptr %24, align 4, !tbaa !67
  %26 = add i32 %25, -1
  store i32 %26, ptr %24, align 4, !tbaa !67
  %27 = icmp eq i32 %26, 0
  br i1 %27, label %28, label %_ZN7obj_refI4expr11ast_managerED2Ev.exit

28:                                               ; preds = %21
  invoke void @_ZN11ast_manager11delete_nodeEP3ast(ptr noundef nonnull align 8 dereferenceable(976) %23, ptr noundef nonnull %19)
          to label %_ZN7obj_refI4expr11ast_managerED2Ev.exit unwind label %29

29:                                               ; preds = %28
  %30 = landingpad { ptr, i32 }
          catch ptr null
  %31 = extractvalue { ptr, i32 } %30, 0
  call void @__clang_call_terminate(ptr %31) #24
  unreachable

_ZN7obj_refI4expr11ast_managerED2Ev.exit:         ; preds = %28, %21, %18
  call void @llvm.lifetime.end.p0(i64 16, ptr nonnull %5) #23
  call void @_ZN12rewriter_tplI16beta_reducer_cfgED2Ev(ptr noundef nonnull align 8 dereferenceable(545) %4) #23
  call void @llvm.lifetime.end.p0(i64 552, ptr nonnull %4) #23
  ret void

32:                                               ; preds = %_ZNK6vectorI8rationalLb1EjE4sizeEv.exit
  %33 = landingpad { ptr, i32 }
          cleanup
  call void @llvm.lifetime.end.p0(i64 16, ptr nonnull %5) #23
  call void @_ZN12rewriter_tplI16beta_reducer_cfgED2Ev(ptr noundef nonnull align 8 dereferenceable(545) %4) #23
  call void @llvm.lifetime.end.p0(i64 552, ptr nonnull %4) #23
  resume { ptr, i32 } %33
}